target datalayout = "e-m:e-p270:32:32-p271:32:32-p272:64:64-i64:64-i128:128-f80:128-n8:16:32:64-S128"
target triple = "x86_64-pc-linux-gnu"

%struct.CastContext = type { ptr, ptr, ptr, ptr, ptr, i32, i32 }
%struct.Expr_ = type { ptr, %union.SourceSpan, i16, %union.anon.29 }
%union.SourceSpan = type { i64 }
%union.anon.29 = type { %struct.ExprAnySwitch }
%struct.ExprAnySwitch = type { i8, %union.anon.31 }
%union.anon.31 = type { %struct.anon.32 }
%struct.anon.32 = type { ptr, %union.SourceSpan, ptr }
%struct.Type_ = type { i32, ptr, ptr, ptr, %union.anon.85, ptr, ptr, %union.anon.87 }
%union.anon.85 = type { ptr }
%union.anon.87 = type { %struct.TypeFunction }
%struct.TypeFunction = type { ptr, ptr, ptr }
%struct.Decl_ = type { ptr, ptr, %union.SourceSpan, i64, %union.anon, i32, %union.anon.0, i64, ptr, ptr, ptr, %union.anon.1 }
%union.anon = type { ptr }
%union.anon.0 = type { i16 }
%union.anon.1 = type { %struct.FuncDecl }
%struct.FuncDecl = type { i32, [4 x i8], %struct.Signature_, i32, i32, %union.anon.8 }
%struct.Signature_ = type <{ %struct.CalleeAttributes, i16, i8, i32, i32, [4 x i8], ptr }>
%struct.CalleeAttributes = type { i8 }
%union.anon.8 = type { %struct.anon.9 }
%struct.anon.9 = type { i16, %union.anon.10 }
%union.anon.10 = type { ptr }
%struct.anon.2 = type { ptr, ptr, %union.anon.3 }
%union.anon.3 = type { %struct.BitStructDecl }
%struct.BitStructDecl = type { ptr, ptr, i8 }
%struct.TypeInfo_ = type { i16, ptr, %union.SourceSpan, %union.anon.56 }
%union.anon.56 = type { %struct.anon.57 }
%struct.anon.57 = type { ptr, ptr }
%struct.VHeader_ = type { i32, i32, [0 x i8] }

@.str.30 = private unnamed_addr constant [120 x i8] c"%s is not a parent interface of %s, but you can insert an explicit cast '(%s)value' to enforce the (unsafe) conversion.\00", align 1

; Function Attrs: nounwind uwtable
define internal zeroext i1 @rule_interface_to_interface(ptr noundef %0, i1 noundef zeroext %1, i1 noundef zeroext %2) #0 {
  %4 = alloca i32, align 4
  %5 = alloca ptr, align 8
  %6 = alloca ptr, align 8
  %7 = alloca i1, align 1
  %8 = alloca ptr, align 8
  %9 = alloca i8, align 1
  %10 = alloca i8, align 1
  %11 = alloca ptr, align 8
  %12 = alloca ptr, align 8
  %13 = alloca ptr, align 8
  %14 = alloca i32, align 4
  %15 = alloca i32, align 4
  %16 = alloca ptr, align 8
  store ptr %0, ptr %8, align 8
  %17 = zext i1 %1 to i8
  store i8 %17, ptr %9, align 1
  %18 = zext i1 %2 to i8
  store i8 %18, ptr %10, align 1
  %19 = load i8, ptr %9, align 1
  %20 = trunc i8 %19 to i1
  br i1 %20, label %21, label %22

21:                                               ; preds = %3
  store i1 true, ptr %7, align 1
  br label %107

22:                                               ; preds = %3
  %23 = load ptr, ptr %8, align 8
  %24 = getelementptr inbounds %struct.CastContext, ptr %23, i32 0, i32 2
  %25 = load ptr, ptr %24, align 8
  %26 = getelementptr inbounds %struct.Type_, ptr %25, i32 0, i32 7
  %27 = load ptr, ptr %26, align 8
  store ptr %27, ptr %11, align 8
  %28 = load ptr, ptr %8, align 8
  %29 = getelementptr inbounds %struct.CastContext, ptr %28, i32 0, i32 4
  %30 = load ptr, ptr %29, align 8
  %31 = getelementptr inbounds %struct.Type_, ptr %30, i32 0, i32 7
  %32 = load ptr, ptr %31, align 8
  %33 = getelementptr inbounds %struct.Type_, ptr %32, i32 0, i32 1
  %34 = load ptr, ptr %33, align 8
  store ptr %34, ptr %12, align 8
  %35 = load ptr, ptr %8, align 8
  %36 = getelementptr inbounds %struct.CastContext, ptr %35, i32 0, i32 0
  %37 = load ptr, ptr %36, align 8
  %38 = load ptr, ptr %11, align 8
  %39 = call zeroext i1 @sema_resolve_type_decl(ptr noundef %37, ptr noundef %38)
  br i1 %39, label %41, label %40

40:                                               ; preds = %22
  store i1 false, ptr %7, align 1
  br label %107

41:                                               ; preds = %22
  %42 = load ptr, ptr %11, align 8
  %43 = getelementptr inbounds %struct.Type_, ptr %42, i32 0, i32 7
  %44 = load ptr, ptr %43, align 8
  %45 = getelementptr inbounds %struct.Decl_, ptr %44, i32 0, i32 11
  %46 = getelementptr inbounds %struct.anon.2, ptr %45, i32 0, i32 0
  %47 = load ptr, ptr %46, align 8
  store ptr %47, ptr %13, align 8
  %48 = load ptr, ptr %13, align 8
  store ptr %48, ptr %5, align 8
  %49 = load ptr, ptr %5, align 8
  %50 = icmp ne ptr %49, null
  br i1 %50, label %52, label %51

51:                                               ; preds = %41
  store i32 0, ptr %4, align 4
  br label %57

52:                                               ; preds = %41
  %53 = load ptr, ptr %5, align 8
  store ptr %53, ptr %6, align 8
  %54 = load ptr, ptr %6, align 8
  %55 = getelementptr inbounds %struct.VHeader_, ptr %54, i64 -1
  %56 = load i32, ptr %55, align 4
  store i32 %56, ptr %4, align 4
  br label %57

57:                                               ; preds = %52, %51
  %58 = load i32, ptr %4, align 4
  store i32 %58, ptr %14, align 4
  store i32 0, ptr %15, align 4
  br label %59

59:                                               ; preds = %78, %57
  %60 = load i32, ptr %15, align 4
  %61 = load i32, ptr %14, align 4
  %62 = icmp ult i32 %60, %61
  br i1 %62, label %63, label %81

63:                                               ; preds = %59
  %64 = load ptr, ptr %13, align 8
  %65 = load i32, ptr %15, align 4
  %66 = zext i32 %65 to i64
  %67 = getelementptr inbounds ptr, ptr %64, i64 %66
  %68 = load ptr, ptr %67, align 8
  store ptr %68, ptr %16, align 8
  %69 = load ptr, ptr %16, align 8
  %70 = getelementptr inbounds %struct.TypeInfo_, ptr %69, i32 0, i32 1
  %71 = load ptr, ptr %70, align 8
  %72 = getelementptr inbounds %struct.Type_, ptr %71, i32 0, i32 1
  %73 = load ptr, ptr %72, align 8
  %74 = load ptr, ptr %12, align 8
  %75 = icmp eq ptr %73, %74
  br i1 %75, label %76, label %77

76:                                               ; preds = %63
  store i1 true, ptr %7, align 1
  br label %107

77:                                               ; preds = %63
  br label %78

78:                                               ; preds = %77
  %79 = load i32, ptr %15, align 4
  %80 = add i32 %79, 1
  store i32 %80, ptr %15, align 4
  br label %59, !llvm.loop !9

81:                                               ; preds = %59
  br label %82

82:                                               ; preds = %81
  br label %83

83:                                               ; preds = %82
  %84 = load i8, ptr %10, align 1
  %85 = trunc i8 %84 to i1
  br i1 %85, label %86, label %87

86:                                               ; preds = %83
  store i1 false, ptr %7, align 1
  br label %107

87:                                               ; preds = %83
  br label %88

88:                                               ; preds = %87
  %89 = load ptr, ptr %8, align 8
  %90 = getelementptr inbounds %struct.CastContext, ptr %89, i32 0, i32 1
  %91 = load ptr, ptr %90, align 8
  %92 = getelementptr inbounds %struct.Expr_, ptr %91, i32 0, i32 1
  %93 = load ptr, ptr %8, align 8
  %94 = getelementptr inbounds %struct.CastContext, ptr %93, i32 0, i32 4
  %95 = load ptr, ptr %94, align 8
  %96 = getelementptr inbounds %struct.Type_, ptr %95, i32 0, i32 7
  %97 = load ptr, ptr %96, align 8
  %98 = call ptr @type_quoted_error_string(ptr noundef %97)
  %99 = load ptr, ptr %11, align 8
  %100 = call ptr @type_quoted_error_string(ptr noundef %99)
  %101 = load ptr, ptr %8, align 8
  %102 = getelementptr inbounds %struct.CastContext, ptr %101, i32 0, i32 3
  %103 = load ptr, ptr %102, align 8
  %104 = call ptr @type_to_error_string(ptr noundef %103)
  %105 = getelementptr inbounds %union.SourceSpan, ptr %92, i32 0, i32 0
  %106 = load i64, ptr %105, align 8
  call void (i64, ptr, ...) @sema_error_at(i64 %106, ptr noundef @.str.30, ptr noundef %98, ptr noundef %100, ptr noundef %104)
  store i1 false, ptr %7, align 1
  br label %107

107:                                              ; preds = %88, %86, %76, %40, %21
  %108 = load i1, ptr %7, align 1
  ret i1 %108
}