; Function Attrs: nounwind uwtable
define internal noundef zeroext i1 @rule_interface_to_interface(ptr nocapture noundef readonly %0, i1 noundef zeroext %1, i1 noundef zeroext %2) #0 {
  br i1 %1, label %.loopexit, label %4

4:                                                ; preds = %3
  %5 = getelementptr inbounds i8, ptr %0, i64 16
  %6 = load ptr, ptr %5, align 8
  %7 = getelementptr inbounds i8, ptr %6, i64 56
  %8 = load ptr, ptr %7, align 8
  %9 = getelementptr inbounds i8, ptr %0, i64 32
  %10 = load ptr, ptr %9, align 8
  %11 = getelementptr inbounds i8, ptr %10, i64 56
  %12 = load ptr, ptr %11, align 8
  %13 = getelementptr inbounds i8, ptr %12, i64 8
  %14 = load ptr, ptr %13, align 8
  %15 = load ptr, ptr %0, align 8
  %16 = tail call zeroext i1 @sema_resolve_type_decl(ptr noundef %15, ptr noundef %8) #10
  br i1 %16, label %17, label %.loopexit

17:                                               ; preds = %4
  %18 = getelementptr inbounds i8, ptr %8, i64 56
  %19 = load ptr, ptr %18, align 8
  %20 = getelementptr inbounds i8, ptr %19, i64 80
  %21 = load ptr, ptr %20, align 8
  %.not = icmp eq ptr %21, null
  br i1 %.not, label %._crit_edge, label %22

22:                                               ; preds = %17
  %23 = getelementptr inbounds i8, ptr %21, i64 -8
  %24 = load i32, ptr %23, align 4
  %.not27 = icmp eq i32 %24, 0
  br i1 %.not27, label %._crit_edge, label %.lr.ph.preheader

.lr.ph.preheader:                                 ; preds = %22
  %wide.trip.count = zext i32 %24 to i64
  br label %.lr.ph

25:                                               ; preds = %.lr.ph
  %indvars.iv.next = add nuw nsw i64 %indvars.iv, 1
  %exitcond.not = icmp eq i64 %indvars.iv.next, %wide.trip.count
  br i1 %exitcond.not, label %._crit_edge, label %.lr.ph, !llvm.loop !9

.lr.ph:                                           ; preds = %.lr.ph.preheader, %25
  %indvars.iv = phi i64 [ 0, %.lr.ph.preheader ], [ %indvars.iv.next, %25 ]
  %26 = getelementptr inbounds ptr, ptr %21, i64 %indvars.iv
  %27 = load ptr, ptr %26, align 8
  %28 = getelementptr inbounds i8, ptr %27, i64 8
  %29 = load ptr, ptr %28, align 8
  %30 = getelementptr inbounds i8, ptr %29, i64 8
  %31 = load ptr, ptr %30, align 8
  %32 = icmp eq ptr %31, %14
  br i1 %32, label %.loopexit, label %25

._crit_edge:                                      ; preds = %25, %17, %22
  br i1 %2, label %.loopexit, label %33

33:                                               ; preds = %._crit_edge
  %34 = getelementptr inbounds i8, ptr %0, i64 8
  %35 = load ptr, ptr %34, align 8
  %36 = getelementptr inbounds i8, ptr %35, i64 8
  %37 = load ptr, ptr %9, align 8
  %38 = getelementptr inbounds i8, ptr %37, i64 56
  %39 = load ptr, ptr %38, align 8
  %40 = tail call ptr @type_quoted_error_string(ptr noundef %39) #10
  %41 = tail call ptr @type_quoted_error_string(ptr noundef %8) #10
  %42 = getelementptr inbounds i8, ptr %0, i64 24
  %43 = load ptr, ptr %42, align 8
  %44 = tail call ptr @type_to_error_string(ptr noundef %43) #10
  %45 = load i64, ptr %36, align 8
  tail call void (i64, ptr, ...) @sema_error_at(i64 %45, ptr noundef nonnull @.str.30, ptr noundef %40, ptr noundef %41, ptr noundef %44) #10
  br label %.loopexit

.loopexit:                                        ; preds = %.lr.ph, %._crit_edge, %4, %3, %33
  %.024 = phi i1 [ false, %33 ], [ true, %3 ], [ false, %4 ], [ false, %._crit_edge ], [ true, %.lr.ph ]
  ret i1 %.024
}